; ModuleID = '15/467.c'
source_filename = "15/467.c"
target datalayout = "e-m:e-p270:32:32-p271:32:32-p272:64:64-i64:64-f80:128-n8:16:32:64-S128"
target triple = "x86_64-pc-linux-gnu"

@.str = private unnamed_addr constant [3 x i8] c"%d\00", align 1
@.str.1 = private unnamed_addr constant [4 x i8] c"%d\0A\00", align 1

; Function Attrs: noinline nounwind uwtable
define dso_local i32 @main() #0 {
  %1 = alloca i32, align 4
  %2 = alloca i32, align 4
  %3 = alloca i32, align 4
  %4 = alloca i32, align 4
  %5 = alloca i32, align 4
  %6 = alloca i32, align 4
  %7 = alloca i32, align 4
  %8 = alloca i32, align 4
  %9 = alloca i32, align 4
  %10 = alloca i32, align 4
  store i32 0, i32* %1, align 4
  store i32 0, i32* %7, align 4
  store i32 0, i32* %8, align 4
  store i32 0, i32* %9, align 4
  store i32 0, i32* %10, align 4
  %11 = call i32 (i8*, ...) @__isoc99_scanf(i8* getelementptr inbounds ([3 x i8], [3 x i8]* @.str, i64 0, i64 0), i32* %5)
  store i32 1, i32* %2, align 4
  br label %12

12:                                               ; preds = %42, %0
  %13 = load i32, i32* %2, align 4
  %14 = load i32, i32* %5, align 4
  %15 = icmp sle i32 %13, %14
  br i1 %15, label %16, label %45

16:                                               ; preds = %12
  store i32 1, i32* %3, align 4
  br label %17

17:                                               ; preds = %38, %16
  %18 = load i32, i32* %3, align 4
  %19 = load i32, i32* %5, align 4
  %20 = icmp sle i32 %18, %19
  br i1 %20, label %21, label %41

21:                                               ; preds = %17
  %22 = call i32 (i8*, ...) @__isoc99_scanf(i8* getelementptr inbounds ([3 x i8], [3 x i8]* @.str, i64 0, i64 0), i32* %4)
  %23 = load i32, i32* %4, align 4
  %24 = icmp eq i32 %23, 0
  br i1 %24, label %25, label %37

25:                                               ; preds = %21
  %26 = load i32, i32* %2, align 4
  store i32 %26, i32* %9, align 4
  %27 = load i32, i32* %3, align 4
  store i32 %27, i32* %10, align 4
  %28 = load i32, i32* %7, align 4
  %29 = icmp eq i32 %28, 0
  br i1 %29, label %30, label %36

30:                                               ; preds = %25
  %31 = load i32, i32* %8, align 4
  %32 = icmp eq i32 %31, 0
  br i1 %32, label %33, label %36

33:                                               ; preds = %30
  %34 = load i32, i32* %2, align 4
  store i32 %34, i32* %7, align 4
  %35 = load i32, i32* %3, align 4
  store i32 %35, i32* %8, align 4
  br label %36

36:                                               ; preds = %33, %30, %25
  br label %37

37:                                               ; preds = %36, %21
  br label %38

38:                                               ; preds = %37
  %39 = load i32, i32* %3, align 4
  %40 = add nsw i32 %39, 1
  store i32 %40, i32* %3, align 4
  br label %17

41:                                               ; preds = %17
  br label %42

42:                                               ; preds = %41
  %43 = load i32, i32* %2, align 4
  %44 = add nsw i32 %43, 1
  store i32 %44, i32* %2, align 4
  br label %12

45:                                               ; preds = %12
  %46 = load i32, i32* %9, align 4
  %47 = load i32, i32* %7, align 4
  %48 = sub nsw i32 %46, %47
  %49 = sub nsw i32 %48, 1
  %50 = load i32, i32* %10, align 4
  %51 = load i32, i32* %8, align 4
  %52 = sub nsw i32 %50, %51
  %53 = sub nsw i32 %52, 1
  %54 = mul nsw i32 %49, %53
  store i32 %54, i32* %6, align 4
  %55 = load i32, i32* %6, align 4
  %56 = call i32 (i8*, ...) @printf(i8* getelementptr inbounds ([4 x i8], [4 x i8]* @.str.1, i64 0, i64 0), i32 %55)
  ret i32 0
}

declare dso_local i32 @__isoc99_scanf(i8*, ...) #1

declare dso_local i32 @printf(i8*, ...) #1


!llvm.module.flags = !{!0}
!llvm.ident = !{!1}

!0 = !{i32 1, !"wchar_size", i32 4}
!1 = !{!"clang version 10.0.0-4ubuntu1 "}
